target datalayout = "e-m:e-p270:32:32-p271:32:32-p272:64:64-i64:64-i128:128-f80:128-n8:16:32:64-S128"
target triple = "x86_64-pc-linux-gnu"

%class.LibRaw = type { ptr, %struct.libraw_data_t, ptr, %struct.libraw_internal_data_t, [2048 x %struct.decode], ptr, ptr, [10 x %struct.tiff_ifd_t], %class.libraw_memmgr, %struct.libraw_callbacks_t, { i64, i64 }, { i64, i64 }, { i64, i64 }, ptr, ptr, ptr, i64, ptr, ptr, ptr, ptr }
%struct.libraw_data_t = type { ptr, %struct.libraw_image_sizes_t, %struct.libraw_iparams_t, %struct.libraw_lensinfo_t, %struct.libraw_makernotes_t, %struct.libraw_shootinginfo_t, %struct.libraw_output_params_t, %struct.libraw_raw_unpack_params_t, i32, i32, %struct.libraw_colordata_t, %struct.libraw_imgother_t, %struct.libraw_thumbnail_t, %struct.libraw_thumbnail_list_t, %struct.libraw_rawdata_t, ptr }
%struct.libraw_image_sizes_t = type { i16, i16, i16, i16, i16, i16, i16, i16, i32, double, i32, [8 x [4 x i32]], i16, [2 x %struct.libraw_raw_inset_crop_t] }
%struct.libraw_raw_inset_crop_t = type { i16, i16, i16, i16 }
%struct.libraw_iparams_t = type { [4 x i8], [64 x i8], [64 x i8], [64 x i8], [64 x i8], [64 x i8], i32, i32, i32, i32, i32, i32, [6 x [6 x i8]], [6 x [6 x i8]], [5 x i8], i32, ptr }
%struct.libraw_lensinfo_t = type { float, float, float, float, float, [128 x i8], [128 x i8], [128 x i8], [128 x i8], i16, %struct.libraw_nikonlens_t, %struct.libraw_dnglens_t, %struct.libraw_makernotes_lens_t }
%struct.libraw_nikonlens_t = type { float, i8, i8, i8, i8 }
%struct.libraw_dnglens_t = type { float, float, float, float }
%struct.libraw_makernotes_lens_t = type { i64, [128 x i8], i16, i16, i64, i16, i16, [64 x i8], i16, [16 x i8], [16 x i8], float, float, float, float, float, float, float, float, float, float, float, float, float, float, float, i64, [128 x i8], i64, [128 x i8], i64, [128 x i8], i16, float }
%struct.libraw_makernotes_t = type { %struct.libraw_canon_makernotes_t, %struct.libraw_nikon_makernotes_t, %struct.libraw_hasselblad_makernotes_t, %struct.libraw_fuji_info_t, %struct.libraw_olympus_makernotes_t, %struct.libraw_sony_info_t, %struct.libraw_kodak_makernotes_t, %struct.libraw_panasonic_makernotes_t, %struct.libraw_pentax_makernotes_t, %struct.libraw_p1_makernotes_t, %struct.libraw_ricoh_makernotes_t, %struct.libraw_samsung_makernotes_t, %struct.libraw_metadata_common_t }
%struct.libraw_canon_makernotes_t = type { i32, i32, i32, i32, [4 x i32], i32, [4 x i32], i16, i16, i8, i16, i16, i16, i16, i16, i16, i16, i16, i16, i16, i16, i16, i16, i32, float, i16, i16, i16, i32, i16, i32, i32, i16, i32, %struct.libraw_area_t, %struct.libraw_area_t, %struct.libraw_area_t, %struct.libraw_area_t, %struct.libraw_area_t, [2 x i16] }
%struct.libraw_area_t = type { i16, i16, i16, i16 }
%struct.libraw_nikon_makernotes_t = type { double, i16, i16, [7 x i8], i8, i8, [13 x i8], [20 x i8], [4 x i8], [4 x i8], [4 x i8], i8, i8, i8, i8, i8, [2 x i8], i8, i8, i8, i8, i8, [4 x i8], [4 x i8], i8, i16, i32, i32, i32, i32, [4 x double], i8, i8, i8, i32, i32, i32, i8, [4 x i16], i16, %struct.libraw_sensor_highspeed_crop_t, i16, i16, i16, i32, [20 x i8], [20 x i8], i32, i16, double, double, double }
%struct.libraw_sensor_highspeed_crop_t = type { i16, i16, i16, i16 }
%struct.libraw_hasselblad_makernotes_t = type { i32, double, [8 x i8], [64 x i8], [64 x i8], i32, i32, i32, i32, [32 x i8], [64 x i8], i32, [2 x i32], [2 x i32], [4 x [3 x double]] }
%struct.libraw_fuji_info_t = type { float, i16, i16, i16, i16, i16, i16, i16, i16, [33 x i8], [33 x i8], float, i16, i16, [2 x i16], i16, i32, i32, i16, [3 x i16], i16, i16, i16, i16, i16, i32, i16, [13 x i8], [5 x i8], [5 x i8], i32, i16, i32, i16, [9 x i16], [32 x i32], i32, i32, i32, [2 x float], i32 }
%struct.libraw_olympus_makernotes_t = type { [6 x i8], i16, [2 x i32], [5 x i16], i16, [2 x i16], i16, i16, [64 x i32], [5 x double], i16, i8, [3 x i16], [3 x i32], i16, i16, i16, i16, double, [4 x i16], [2 x i32], i8, i32, i16, i16 }
%struct.libraw_sony_info_t = type { i16, i8, i8, i32, i8, i32, i8, i8, i16, [2 x i16], i8, i8, i16, [10 x i8], i8, i8, [4 x i16], i16, i8, i8, i8, i16, i32, i16, [2 x i16], i16, i16, i16, i16, i16, i16, i16, i32, float, i16, i32, i32, i16, [20 x i8], i32, i16, i32, i8, i8, i16, i16, i16, i16, i16, i16, i16, i16, i16, i32, i16, [16 x i8], float }
%struct.libraw_kodak_makernotes_t = type { i16, i16, i16, i16, i16, i16, [3 x [3 x float]], [3 x [3 x float]], [3 x [3 x float]], [3 x [3 x float]], [3 x [3 x float]], [3 x [3 x float]], i16, i16, i16, i16, float, float }
%struct.libraw_panasonic_makernotes_t = type { i16, i16, [8 x float], i32, float, [3 x i32], i16, i16, i32, i32 }
%struct.libraw_pentax_makernotes_t = type { [4 x i8], [2 x i16], [2 x i16], i16, i32, i32, i16, i16, i8, i8, i16 }
%struct.libraw_p1_makernotes_t = type { [64 x i8], [64 x i8], [256 x i8], [64 x i8] }
%struct.libraw_ricoh_makernotes_t = type { i16, [2 x i32], [2 x i32], i16, i32, i32, i32, i32, i16, i16, i16, i16, i16, i16, double, double }
%struct.libraw_samsung_makernotes_t = type { [4 x i32], [4 x i32], [2 x i32], [11 x i32], double, i32, [32 x i8] }
%struct.libraw_metadata_common_t = type { float, float, float, float, float, float, float, float, float, float, float, float, float, float, float, float, i16, [128 x i8], float, [4 x %struct.libraw_afinfo_item_t], i32 }
%struct.libraw_afinfo_item_t = type { i32, i16, i32, i32, ptr }
%struct.libraw_shootinginfo_t = type { i16, i16, i16, i16, i16, i16, i16, [64 x i8], [64 x i8] }
%struct.libraw_output_params_t = type { [4 x i32], [4 x i32], [4 x double], [6 x double], [4 x float], float, float, i32, i32, i32, i32, i32, i32, i32, ptr, ptr, ptr, ptr, i32, i32, i32, i32, i32, i32, [4 x i32], i32, i32, float, float, i32, i32, i32, i32, i32, i32, i32, i32, float, float, i32, i32 }
%struct.libraw_raw_unpack_params_t = type { i32, i32, i32, i32, i32, i32, i32, float, [5 x i8], ptr }
%struct.libraw_colordata_t = type { [65536 x i16], [4104 x i32], i32, i32, i32, [4 x i64], float, float, [8 x [8 x i16]], [4 x float], [4 x float], [3 x [4 x float]], [3 x [4 x float]], [3 x [4 x float]], [4 x [3 x float]], %struct.ph1_t, float, float, [64 x i8], [64 x i8], [64 x i8], [64 x i8], [17 x i8], [64 x i8], ptr, i32, [8 x i32], [2 x %struct.libraw_dng_color_t], %struct.libraw_dng_levels_t, [256 x [4 x i32]], [64 x [5 x float]], i32, [2 x %struct.libraw_P1_color_t], i32, i32 }
%struct.ph1_t = type { i32, i32, i32, i32, i32, i32, i32, i32, float }
%struct.libraw_dng_color_t = type { i32, i16, [4 x [4 x float]], [4 x [3 x float]], [3 x [4 x float]] }
%struct.libraw_dng_levels_t = type { i32, [4104 x i32], i32, [4104 x float], float, [4 x i32], [4 x i16], [4 x float], i32, [4 x float], [4 x float], float, float }
%struct.libraw_P1_color_t = type { [9 x float] }
%struct.libraw_imgother_t = type { float, float, float, float, i64, i32, [32 x i32], %struct.libraw_gps_info_t, [512 x i8], [64 x i8], [4 x float] }
%struct.libraw_gps_info_t = type { [3 x float], [3 x float], [3 x float], float, i8, i8, i8, i8, i8 }
%struct.libraw_thumbnail_t = type { i32, i16, i16, i32, i32, ptr }
%struct.libraw_thumbnail_list_t = type { i32, [8 x %struct.libraw_thumbnail_item_t] }
%struct.libraw_thumbnail_item_t = type { i32, i16, i16, i16, i32, i32, i64 }
%struct.libraw_rawdata_t = type { ptr, ptr, ptr, ptr, ptr, ptr, ptr, ptr, ptr, %struct.libraw_iparams_t, %struct.libraw_image_sizes_t, %struct.libraw_internal_output_params_t, %struct.libraw_colordata_t }
%struct.libraw_internal_output_params_t = type { i32, i32, i32, i16, i16 }
%struct.libraw_internal_data_t = type { %struct.internal_data_t, %struct.libraw_internal_output_params_t, %struct.output_data_t, %struct.identify_data_t, %struct.unpacker_data_t }
%struct.internal_data_t = type { ptr, ptr, i32, ptr, i64, i64, [4 x i32] }
%struct.output_data_t = type { ptr, ptr }
%struct.identify_data_t = type { i32, i64, i64, i32, i32, i32 }
%struct.unpacker_data_t = type { i16, [4 x i16], [3 x i16], i32, i64, i64, i64, i64, i64, i64, i32, i32, i32, i32, i32, i32, i32, i32, i32, i32, i32, i32, i32, i32, i32, i32, i32, i64, i32, i32, i32, i32, i32, i32, i32, i32, i32, %struct.pana8_tags_t, [16 x %struct.crx_data_header_t], i32, i32, i16, i16, i32, i32, i32, i32, i32, i32, i32, [20 x i32], i16 }
%struct.pana8_tags_t = type { [6 x i32], [6 x i16], i16, [4 x i16], [17 x i16], [17 x i16], [17 x i16], i16, i16, [5 x i64], [5 x i16], [5 x i32], [5 x i16], [5 x i16] }
%struct.crx_data_header_t = type { i32, i32, i32, i32, i32, i32, i32, i32, i32, i32, i32, i32, i32, i32, i32, i64, i32, ptr, i32, i32, i32, ptr, i32, ptr }
%struct.decode = type { [2 x ptr], i32 }
%struct.tiff_ifd_t = type { i32, i32, i32, i32, i32, i32, i32, i32, i32, i32, i32, i32, i32, i32, i32, ptr, i32, ptr, i32, i32, i32, i32, i32, i32, i32, float, i64, i64, i32, [2 x %struct.libraw_dng_color_t], %struct.libraw_dng_levels_t, i32 }
%class.libraw_memmgr = type <{ ptr, i32, [4 x i8] }>
%struct.libraw_callbacks_t = type { ptr, ptr, ptr, ptr, ptr, ptr, ptr, ptr, ptr, ptr, ptr, ptr, ptr, ptr, ptr, ptr, ptr }

; Function Attrs: mustprogress uwtable
define noundef signext i16 @_ZN6LibRaw16guess_byte_orderEi(ptr noundef nonnull align 8 dereferenceable(767680) %0, i32 noundef %1) #0 align 2 {
  %3 = alloca ptr, align 8
  %4 = alloca i32, align 4
  %5 = alloca [4 x [2 x i8]], align 1
  %6 = alloca i32, align 4
  %7 = alloca i32, align 4
  %8 = alloca double, align 8
  %9 = alloca [2 x double], align 16
  store ptr %0, ptr %3, align 8, !tbaa !6
  store i32 %1, ptr %4, align 4, !tbaa !11
  %10 = load ptr, ptr %3, align 8
  call void @llvm.lifetime.start.p0(i64 8, ptr %5) #8
  call void @llvm.lifetime.start.p0(i64 4, ptr %6) #8
  store i32 2, ptr %6, align 4, !tbaa !11
  call void @llvm.lifetime.start.p0(i64 4, ptr %7) #8
  call void @llvm.lifetime.start.p0(i64 8, ptr %8) #8
  call void @llvm.lifetime.start.p0(i64 16, ptr %9) #8
  call void @llvm.memset.p0.i64(ptr align 16 %9, i8 0, i64 16, i1 false)
  %11 = getelementptr inbounds nuw %class.LibRaw, ptr %10, i32 0, i32 3
  %12 = getelementptr inbounds nuw %struct.libraw_internal_data_t, ptr %11, i32 0, i32 0
  %13 = getelementptr inbounds nuw %struct.internal_data_t, ptr %12, i32 0, i32 0
  %14 = load ptr, ptr %13, align 8, !tbaa !13
  %15 = getelementptr inbounds [4 x [2 x i8]], ptr %5, i64 0, i64 0
  %16 = getelementptr inbounds [2 x i8], ptr %15, i64 0, i64 0
  %17 = load ptr, ptr %14, align 8, !tbaa !74
  %18 = getelementptr inbounds ptr, ptr %17, i64 3
  %19 = load ptr, ptr %18, align 8
  %20 = call noundef i32 %19(ptr noundef nonnull align 8 dereferenceable(8) %14, ptr noundef %16, i64 noundef 2, i64 noundef 2)
  %21 = load i32, ptr %4, align 4, !tbaa !11
  %22 = sub nsw i32 %21, 2
  store i32 %22, ptr %4, align 4, !tbaa !11
  br label %23

23:                                               ; preds = %99, %2
  %24 = load i32, ptr %4, align 4, !tbaa !11
  %25 = add nsw i32 %24, -1
  store i32 %25, ptr %4, align 4, !tbaa !11
  %26 = icmp ne i32 %24, 0
  br i1 %26, label %27, label %103

27:                                               ; preds = %23
  %28 = getelementptr inbounds nuw %class.LibRaw, ptr %10, i32 0, i32 3
  %29 = getelementptr inbounds nuw %struct.libraw_internal_data_t, ptr %28, i32 0, i32 0
  %30 = getelementptr inbounds nuw %struct.internal_data_t, ptr %29, i32 0, i32 0
  %31 = load ptr, ptr %30, align 8, !tbaa !13
  %32 = load i32, ptr %6, align 4, !tbaa !11
  %33 = sext i32 %32 to i64
  %34 = getelementptr inbounds [4 x [2 x i8]], ptr %5, i64 0, i64 %33
  %35 = getelementptr inbounds [2 x i8], ptr %34, i64 0, i64 0
  %36 = load ptr, ptr %31, align 8, !tbaa !74
  %37 = getelementptr inbounds ptr, ptr %36, i64 3
  %38 = load ptr, ptr %37, align 8
  %39 = call noundef i32 %38(ptr noundef nonnull align 8 dereferenceable(8) %31, ptr noundef %35, i64 noundef 2, i64 noundef 1)
  store i32 0, ptr %7, align 4, !tbaa !11
  br label %40

40:                                               ; preds = %96, %27
  %41 = load i32, ptr %7, align 4, !tbaa !11
  %42 = icmp slt i32 %41, 2
  br i1 %42, label %43, label %99

43:                                               ; preds = %40
  %44 = load i32, ptr %6, align 4, !tbaa !11
  %45 = xor i32 %44, 2
  %46 = sext i32 %45 to i64
  %47 = getelementptr inbounds [4 x [2 x i8]], ptr %5, i64 0, i64 %46
  %48 = load i32, ptr %7, align 4, !tbaa !11
  %49 = sext i32 %48 to i64
  %50 = getelementptr inbounds [2 x i8], ptr %47, i64 0, i64 %49
  %51 = load i8, ptr %50, align 1, !tbaa !76
  %52 = zext i8 %51 to i32
  %53 = shl i32 %52, 8
  %54 = load i32, ptr %6, align 4, !tbaa !11
  %55 = xor i32 %54, 2
  %56 = sext i32 %55 to i64
  %57 = getelementptr inbounds [4 x [2 x i8]], ptr %5, i64 0, i64 %56
  %58 = load i32, ptr %7, align 4, !tbaa !11
  %59 = icmp ne i32 %58, 0
  %60 = xor i1 %59, true
  %61 = zext i1 %60 to i64
  %62 = getelementptr inbounds nuw [2 x i8], ptr %57, i64 0, i64 %61
  %63 = load i8, ptr %62, align 1, !tbaa !76
  %64 = zext i8 %63 to i32
  %65 = or i32 %53, %64
  %66 = load i32, ptr %6, align 4, !tbaa !11
  %67 = sext i32 %66 to i64
  %68 = getelementptr inbounds [4 x [2 x i8]], ptr %5, i64 0, i64 %67
  %69 = load i32, ptr %7, align 4, !tbaa !11
  %70 = sext i32 %69 to i64
  %71 = getelementptr inbounds [2 x i8], ptr %68, i64 0, i64 %70
  %72 = load i8, ptr %71, align 1, !tbaa !76
  %73 = zext i8 %72 to i32
  %74 = shl i32 %73, 8
  %75 = load i32, ptr %6, align 4, !tbaa !11
  %76 = sext i32 %75 to i64
  %77 = getelementptr inbounds [4 x [2 x i8]], ptr %5, i64 0, i64 %76
  %78 = load i32, ptr %7, align 4, !tbaa !11
  %79 = icmp ne i32 %78, 0
  %80 = xor i1 %79, true
  %81 = zext i1 %80 to i64
  %82 = getelementptr inbounds nuw [2 x i8], ptr %77, i64 0, i64 %81
  %83 = load i8, ptr %82, align 1, !tbaa !76
  %84 = zext i8 %83 to i32
  %85 = or i32 %74, %84
  %86 = sub nsw i32 %65, %85
  %87 = sitofp i32 %86 to double
  store double %87, ptr %8, align 8, !tbaa !77
  %88 = load double, ptr %8, align 8, !tbaa !77
  %89 = load double, ptr %8, align 8, !tbaa !77
  %90 = fmul reassoc nsz arcp contract afn double %88, %89
  %91 = load i32, ptr %7, align 4, !tbaa !11
  %92 = sext i32 %91 to i64
  %93 = getelementptr inbounds [2 x double], ptr %9, i64 0, i64 %92
  %94 = load double, ptr %93, align 8, !tbaa !77
  %95 = fadd reassoc nsz arcp contract afn double %94, %90
  store double %95, ptr %93, align 8, !tbaa !77
  br label %96

96:                                               ; preds = %43
  %97 = load i32, ptr %7, align 4, !tbaa !11
  %98 = add nsw i32 %97, 1
  store i32 %98, ptr %7, align 4, !tbaa !11
  br label %40, !llvm.loop !78

99:                                               ; preds = %40
  %100 = load i32, ptr %6, align 4, !tbaa !11
  %101 = add nsw i32 %100, 1
  %102 = and i32 %101, 3
  store i32 %102, ptr %6, align 4, !tbaa !11
  br label %23, !llvm.loop !80

103:                                              ; preds = %23
  %104 = getelementptr inbounds [2 x double], ptr %9, i64 0, i64 0
  %105 = load double, ptr %104, align 16, !tbaa !77
  %106 = getelementptr inbounds [2 x double], ptr %9, i64 0, i64 1
  %107 = load double, ptr %106, align 8, !tbaa !77
  %108 = fcmp reassoc nsz arcp contract afn olt double %105, %107
  %109 = select i1 %108, i32 19789, i32 18761
  %110 = trunc i32 %109 to i16
  call void @llvm.lifetime.end.p0(i64 16, ptr %9) #8
  call void @llvm.lifetime.end.p0(i64 8, ptr %8) #8
  call void @llvm.lifetime.end.p0(i64 4, ptr %7) #8
  call void @llvm.lifetime.end.p0(i64 4, ptr %6) #8
  call void @llvm.lifetime.end.p0(i64 8, ptr %5) #8
  ret i16 %110
}