; Function Attrs: mustprogress uwtable
define noundef signext range(i16 18761, 19790) i16 @_ZN6LibRaw16guess_byte_orderEi(ptr noundef nonnull readonly align 8 captures(none) dereferenceable(767680) %0, i32 noundef %1) local_unnamed_addr #0 align 2 {
  %3 = alloca [4 x [2 x i8]], align 1
  %.sroa.0 = alloca double, align 16
  %.sroa.5 = alloca double, align 8
  call void @llvm.lifetime.start.p0(i64 8, ptr nonnull %3) #11
  call void @llvm.lifetime.start.p0(i64 8, ptr nonnull %.sroa.0)
  call void @llvm.lifetime.start.p0(i64 8, ptr nonnull %.sroa.5)
  store double 0.000000e+00, ptr %.sroa.0, align 16
  store double 0.000000e+00, ptr %.sroa.5, align 8
  %4 = getelementptr inbounds nuw i8, ptr %0, i64 381416
  %5 = load ptr, ptr %4, align 8, !tbaa !6
  %6 = load ptr, ptr %5, align 8, !tbaa !71
  %7 = getelementptr inbounds nuw i8, ptr %6, i64 24
  %8 = load ptr, ptr %7, align 8
  %9 = call noundef i32 %8(ptr noundef nonnull align 8 dereferenceable(8) %5, ptr noundef nonnull %3, i64 noundef 2, i64 noundef 2)
  %.not21 = icmp eq i32 %1, 2
  br i1 %.not21, label %._crit_edge, label %.lr.ph.preheader

.lr.ph.preheader:                                 ; preds = %2
  %10 = add nsw i32 %1, -3
  br label %.lr.ph

.lr.ph:                                           ; preds = %.lr.ph.preheader, %45
  %11 = phi i32 [ %48, %45 ], [ %10, %.lr.ph.preheader ]
  %.01822 = phi i32 [ %47, %45 ], [ 2, %.lr.ph.preheader ]
  %12 = load ptr, ptr %4, align 8, !tbaa !6
  %13 = zext nneg i32 %.01822 to i64
  %14 = getelementptr inbounds nuw [4 x [2 x i8]], ptr %3, i64 0, i64 %13
  %15 = load ptr, ptr %12, align 8, !tbaa !71
  %16 = getelementptr inbounds nuw i8, ptr %15, i64 24
  %17 = load ptr, ptr %16, align 8
  %18 = call noundef i32 %17(ptr noundef nonnull align 8 dereferenceable(8) %12, ptr noundef nonnull %14, i64 noundef 2, i64 noundef 1)
  %19 = xor i32 %.01822, 2
  %20 = zext nneg i32 %19 to i64
  br label %21

21:                                               ; preds = %.lr.ph, %21
  %22 = phi i1 [ true, %.lr.ph ], [ false, %21 ]
  %indvars.iv.sroa.phi = phi ptr [ %.sroa.0, %.lr.ph ], [ %.sroa.5, %21 ]
  %indvars.iv = phi i64 [ 0, %.lr.ph ], [ 1, %21 ]
  %23 = getelementptr inbounds nuw [4 x [2 x i8]], ptr %3, i64 0, i64 %20, i64 %indvars.iv
  %24 = load i8, ptr %23, align 1, !tbaa !73
  %25 = zext i8 %24 to i32
  %26 = shl nuw nsw i32 %25, 8
  %27 = xor i64 %indvars.iv, 1
  %28 = getelementptr inbounds nuw [4 x [2 x i8]], ptr %3, i64 0, i64 %20, i64 %27
  %29 = load i8, ptr %28, align 1, !tbaa !73
  %30 = zext i8 %29 to i32
  %31 = or disjoint i32 %26, %30
  %32 = getelementptr inbounds nuw [4 x [2 x i8]], ptr %3, i64 0, i64 %13, i64 %indvars.iv
  %33 = load i8, ptr %32, align 1, !tbaa !73
  %34 = zext i8 %33 to i32
  %35 = shl nuw nsw i32 %34, 8
  %36 = getelementptr inbounds nuw [4 x [2 x i8]], ptr %3, i64 0, i64 %13, i64 %27
  %37 = load i8, ptr %36, align 1, !tbaa !73
  %38 = zext i8 %37 to i32
  %39 = or disjoint i32 %35, %38
  %40 = sub nsw i32 %31, %39
  %41 = sitofp i32 %40 to double
  %42 = fmul reassoc nsz arcp contract afn double %41, %41
  %43 = load double, ptr %indvars.iv.sroa.phi, align 8, !tbaa !74
  %44 = fadd reassoc nsz arcp contract afn double %42, %43
  store double %44, ptr %indvars.iv.sroa.phi, align 8, !tbaa !74
  br i1 %22, label %21, label %45, !llvm.loop !75

45:                                               ; preds = %21
  %46 = add nuw nsw i32 %.01822, 1
  %47 = and i32 %46, 3
  %48 = add nsw i32 %11, -1
  %.not = icmp eq i32 %11, 0
  br i1 %.not, label %._crit_edge.loopexit, label %.lr.ph, !llvm.loop !77

._crit_edge.loopexit:                             ; preds = %45
  %.sroa.0.0..sroa.0.0..pre = load double, ptr %.sroa.0, align 16, !tbaa !74
  %.sroa.5.0..sroa.5.8..pre24 = load double, ptr %.sroa.5, align 8, !tbaa !74
  br label %._crit_edge

._crit_edge:                                      ; preds = %._crit_edge.loopexit, %2
  %49 = phi double [ %.sroa.5.0..sroa.5.8..pre24, %._crit_edge.loopexit ], [ 0.000000e+00, %2 ]
  %50 = phi double [ %.sroa.0.0..sroa.0.0..pre, %._crit_edge.loopexit ], [ 0.000000e+00, %2 ]
  %51 = fcmp reassoc nsz arcp contract afn olt double %50, %49
  %52 = select i1 %51, i16 19789, i16 18761
  call void @llvm.lifetime.end.p0(i64 8, ptr nonnull %.sroa.0)
  call void @llvm.lifetime.end.p0(i64 8, ptr nonnull %.sroa.5)
  call void @llvm.lifetime.end.p0(i64 8, ptr nonnull %3) #11
  ret i16 %52
}